target datalayout = "e-m:e-p270:32:32-p271:32:32-p272:64:64-i64:64-i128:128-f80:128-n8:16:32:64-S128"
target triple = "x86_64-pc-linux-gnu"

%"class.std::__cxx11::basic_string" = type { %"struct.std::__cxx11::basic_string<char>::_Alloc_hider", i64, %union.anon }
%"struct.std::__cxx11::basic_string<char>::_Alloc_hider" = type { ptr }
%union.anon = type { i64, [8 x i8] }
%"class.rocksdb::Slice" = type { ptr, i64 }
%"class.__gnu_cxx::__normal_iterator" = type { ptr }
%"class.rocksdb::CompactionState" = type { ptr, %"class.std::vector.3", %"class.rocksdb::Status" }
%"class.std::vector.3" = type { %"struct.std::_Vector_base.4" }
%"struct.std::_Vector_base.4" = type { %"struct.std::_Vector_base<rocksdb::SubcompactionState, std::allocator<rocksdb::SubcompactionState>>::_Vector_impl" }
%"struct.std::_Vector_base<rocksdb::SubcompactionState, std::allocator<rocksdb::SubcompactionState>>::_Vector_impl" = type { %"struct.std::_Vector_base<rocksdb::SubcompactionState, std::allocator<rocksdb::SubcompactionState>>::_Vector_impl_data" }
%"struct.std::_Vector_base<rocksdb::SubcompactionState, std::allocator<rocksdb::SubcompactionState>>::_Vector_impl_data" = type { ptr, ptr, ptr }
%"class.rocksdb::Status" = type { i8, i8, i8, i8, i8, i8, %"class.std::unique_ptr" }
%"class.std::unique_ptr" = type { %"struct.std::__uniq_ptr_data" }
%"struct.std::__uniq_ptr_data" = type { %"class.std::__uniq_ptr_impl" }
%"class.std::__uniq_ptr_impl" = type { %"class.std::tuple" }
%"class.std::tuple" = type { %"struct.std::_Tuple_impl" }
%"struct.std::_Tuple_impl" = type { %"struct.std::_Head_base.9" }
%"struct.std::_Head_base.9" = type { ptr }
%"class.rocksdb::SubcompactionState" = type { ptr, %"class.std::optional", %"class.std::optional", %"class.rocksdb::Status", %"class.rocksdb::IOStatus", i8, %"struct.rocksdb::CompactionJobStats", i32, %"class.rocksdb::CompactionOutputs", %"class.rocksdb::CompactionOutputs", ptr, %"class.std::unique_ptr.62" }
%"class.std::optional" = type { %"struct.std::_Optional_base" }
%"struct.std::_Optional_base" = type { %"struct.std::_Optional_payload" }
%"struct.std::_Optional_payload" = type { %"struct.std::_Optional_payload_base.base", [7 x i8] }
%"struct.std::_Optional_payload_base.base" = type <{ %"union.std::_Optional_payload_base<rocksdb::Slice>::_Storage", i8 }>
%"union.std::_Optional_payload_base<rocksdb::Slice>::_Storage" = type { %"class.rocksdb::Slice" }
%"class.rocksdb::IOStatus" = type { %"class.rocksdb::Status" }
%"struct.rocksdb::CompactionJobStats" = type { i64, i64, i8, i64, i64, i64, i64, i64, i64, i64, i64, i64, i8, i8, i8, i64, i64, i64, i64, i64, i64, i64, i64, i64, i64, i64, i64, i64, i64, i64, %"class.std::__cxx11::basic_string", %"class.std::__cxx11::basic_string", i64, i64 }
%"class.rocksdb::CompactionOutputs" = type { ptr, %"class.std::unique_ptr.10", %"class.std::unique_ptr.18", i64, i64, %"class.std::vector.26", %"class.std::vector.31", %"class.std::unique_ptr.36", %"struct.rocksdb::InternalStats::CompactionOutputsStats", i8, %"class.std::__cxx11::basic_string", %"class.std::unique_ptr.44", i8, ptr, %"class.std::vector.52", i32, i32, i64, i8, i64, i8, i64, %"class.rocksdb::InternalKey", %"class.std::vector.57" }
%"class.std::unique_ptr.10" = type { %"struct.std::__uniq_ptr_data.11" }
%"struct.std::__uniq_ptr_data.11" = type { %"class.std::__uniq_ptr_impl.12" }
%"class.std::__uniq_ptr_impl.12" = type { %"class.std::tuple.13" }
%"class.std::tuple.13" = type { %"struct.std::_Tuple_impl.14" }
%"struct.std::_Tuple_impl.14" = type { %"struct.std::_Head_base.17" }
%"struct.std::_Head_base.17" = type { ptr }
%"class.std::unique_ptr.18" = type { %"struct.std::__uniq_ptr_data.19" }
%"struct.std::__uniq_ptr_data.19" = type { %"class.std::__uniq_ptr_impl.20" }
%"class.std::__uniq_ptr_impl.20" = type { %"class.std::tuple.21" }
%"class.std::tuple.21" = type { %"struct.std::_Tuple_impl.22" }
%"struct.std::_Tuple_impl.22" = type { %"struct.std::_Head_base.25" }
%"struct.std::_Head_base.25" = type { ptr }
%"class.std::vector.26" = type { %"struct.std::_Vector_base.27" }
%"struct.std::_Vector_base.27" = type { %"struct.std::_Vector_base<rocksdb::CompactionOutputs::Output, std::allocator<rocksdb::CompactionOutputs::Output>>::_Vector_impl" }
%"struct.std::_Vector_base<rocksdb::CompactionOutputs::Output, std::allocator<rocksdb::CompactionOutputs::Output>>::_Vector_impl" = type { %"struct.std::_Vector_base<rocksdb::CompactionOutputs::Output, std::allocator<rocksdb::CompactionOutputs::Output>>::_Vector_impl_data" }
%"struct.std::_Vector_base<rocksdb::CompactionOutputs::Output, std::allocator<rocksdb::CompactionOutputs::Output>>::_Vector_impl_data" = type { ptr, ptr, ptr }
%"class.std::vector.31" = type { %"struct.std::_Vector_base.32" }
%"struct.std::_Vector_base.32" = type { %"struct.std::_Vector_base<rocksdb::BlobFileAddition, std::allocator<rocksdb::BlobFileAddition>>::_Vector_impl" }
%"struct.std::_Vector_base<rocksdb::BlobFileAddition, std::allocator<rocksdb::BlobFileAddition>>::_Vector_impl" = type { %"struct.std::_Vector_base<rocksdb::BlobFileAddition, std::allocator<rocksdb::BlobFileAddition>>::_Vector_impl_data" }
%"struct.std::_Vector_base<rocksdb::BlobFileAddition, std::allocator<rocksdb::BlobFileAddition>>::_Vector_impl_data" = type { ptr, ptr, ptr }
%"class.std::unique_ptr.36" = type { %"struct.std::__uniq_ptr_data.37" }
%"struct.std::__uniq_ptr_data.37" = type { %"class.std::__uniq_ptr_impl.38" }
%"class.std::__uniq_ptr_impl.38" = type { %"class.std::tuple.39" }
%"class.std::tuple.39" = type { %"struct.std::_Tuple_impl.40" }
%"struct.std::_Tuple_impl.40" = type { %"struct.std::_Head_base.43" }
%"struct.std::_Head_base.43" = type { ptr }
%"struct.rocksdb::InternalStats::CompactionOutputsStats" = type { i64, i64, i64, i64, i64 }
%"class.std::unique_ptr.44" = type { %"struct.std::__uniq_ptr_data.45" }
%"struct.std::__uniq_ptr_data.45" = type { %"class.std::__uniq_ptr_impl.46" }
%"class.std::__uniq_ptr_impl.46" = type { %"class.std::tuple.47" }
%"class.std::tuple.47" = type { %"struct.std::_Tuple_impl.48" }
%"struct.std::_Tuple_impl.48" = type { %"struct.std::_Head_base.51" }
%"struct.std::_Head_base.51" = type { ptr }
%"class.std::vector.52" = type { %"struct.std::_Vector_base.53" }
%"struct.std::_Vector_base.53" = type { %"struct.std::_Vector_base<rocksdb::FileMetaData *, std::allocator<rocksdb::FileMetaData *>>::_Vector_impl" }
%"struct.std::_Vector_base<rocksdb::FileMetaData *, std::allocator<rocksdb::FileMetaData *>>::_Vector_impl" = type { %"struct.std::_Vector_base<rocksdb::FileMetaData *, std::allocator<rocksdb::FileMetaData *>>::_Vector_impl_data" }
%"struct.std::_Vector_base<rocksdb::FileMetaData *, std::allocator<rocksdb::FileMetaData *>>::_Vector_impl_data" = type { ptr, ptr, ptr }
%"class.rocksdb::InternalKey" = type { %"class.std::__cxx11::basic_string" }
%"class.std::vector.57" = type { %"struct.std::_Vector_base.58" }
%"struct.std::_Vector_base.58" = type { %"struct.std::_Vector_base<unsigned long, std::allocator<unsigned long>>::_Vector_impl" }
%"struct.std::_Vector_base<unsigned long, std::allocator<unsigned long>>::_Vector_impl" = type { %"struct.std::_Vector_base<unsigned long, std::allocator<unsigned long>>::_Vector_impl_data" }
%"struct.std::_Vector_base<unsigned long, std::allocator<unsigned long>>::_Vector_impl_data" = type { ptr, ptr, ptr }
%"class.std::unique_ptr.62" = type { %"struct.std::__uniq_ptr_data.63" }
%"struct.std::__uniq_ptr_data.63" = type { %"class.std::__uniq_ptr_impl.64" }
%"class.std::__uniq_ptr_impl.64" = type { %"class.std::tuple.65" }
%"class.std::tuple.65" = type { %"struct.std::_Tuple_impl.66" }
%"struct.std::_Tuple_impl.66" = type { %"struct.std::_Head_base.69" }
%"struct.std::_Head_base.69" = type { ptr }
%"class.std::reverse_iterator" = type { %"class.__gnu_cxx::__normal_iterator" }

; Function Attrs: mustprogress nounwind uwtable
define linkonce_odr noundef ptr @_ZNK9__gnu_cxx17__normal_iteratorIPN7rocksdb18SubcompactionStateESt6vectorIS2_SaIS2_EEEptEv(ptr noundef nonnull align 8 dereferenceable(8) %0) #3 comdat align 2 {
  %2 = alloca ptr, align 8
  store ptr %0, ptr %2, align 8, !tbaa !54
  %3 = load ptr, ptr %2, align 8
  %4 = getelementptr inbounds nuw %"class.__gnu_cxx::__normal_iterator", ptr %3, i32 0, i32 0
  %5 = load ptr, ptr %4, align 8, !tbaa !56
  ret ptr %5
}

; Function Attrs: mustprogress nounwind uwtable
define linkonce_odr noundef nonnull align 8 dereferenceable(8) ptr @_ZNK9__gnu_cxx17__normal_iteratorIPN7rocksdb18SubcompactionStateESt6vectorIS2_SaIS2_EEE4baseEv(ptr noundef nonnull align 8 dereferenceable(8) %0) #3 comdat align 2 {
  %2 = alloca ptr, align 8
  store ptr %0, ptr %2, align 8, !tbaa !54
  %3 = load ptr, ptr %2, align 8
  %4 = getelementptr inbounds nuw %"class.__gnu_cxx::__normal_iterator", ptr %3, i32 0, i32 0
  ret ptr %4
}

; Function Attrs: mustprogress nounwind uwtable
define linkonce_odr void @_ZN9__gnu_cxx17__normal_iteratorIPN7rocksdb18SubcompactionStateESt6vectorIS2_SaIS2_EEEC2ERKS3_(ptr noundef nonnull align 8 dereferenceable(8) %0, ptr noundef nonnull align 8 dereferenceable(8) %1) unnamed_addr #3 comdat align 2 {
  %3 = alloca ptr, align 8
  %4 = alloca ptr, align 8
  store ptr %0, ptr %3, align 8, !tbaa !54
  store ptr %1, ptr %4, align 8, !tbaa !95
  %5 = load ptr, ptr %3, align 8
  %6 = getelementptr inbounds nuw %"class.__gnu_cxx::__normal_iterator", ptr %5, i32 0, i32 0
  %7 = load ptr, ptr %4, align 8, !tbaa !95
  %8 = load ptr, ptr %7, align 8, !tbaa !52
  store ptr %8, ptr %6, align 8, !tbaa !56
  ret void
}

; Function Attrs: mustprogress nounwind uwtable
define linkonce_odr noundef ptr @_ZNSt16reverse_iteratorIN9__gnu_cxx17__normal_iteratorIPN7rocksdb18SubcompactionStateESt6vectorIS3_SaIS3_EEEEE13_S_to_pointerIS8_EES4_T_(ptr %0) #3 comdat align 2 {
  %2 = alloca %"class.__gnu_cxx::__normal_iterator", align 8
  %3 = getelementptr inbounds nuw %"class.__gnu_cxx::__normal_iterator", ptr %2, i32 0, i32 0
  store ptr %0, ptr %3, align 8
  %4 = call noundef ptr @_ZNK9__gnu_cxx17__normal_iteratorIPN7rocksdb18SubcompactionStateESt6vectorIS2_SaIS2_EEEptEv(ptr noundef nonnull align 8 dereferenceable(8) %2) #4
  ret ptr %4
}

; Function Attrs: mustprogress nounwind uwtable
define linkonce_odr noundef nonnull align 8 dereferenceable(8) ptr @_ZN9__gnu_cxx17__normal_iteratorIPN7rocksdb18SubcompactionStateESt6vectorIS2_SaIS2_EEEmmEv(ptr noundef nonnull align 8 dereferenceable(8) %0) #3 comdat align 2 {
  %2 = alloca ptr, align 8
  store ptr %0, ptr %2, align 8, !tbaa !54
  %3 = load ptr, ptr %2, align 8
  %4 = getelementptr inbounds nuw %"class.__gnu_cxx::__normal_iterator", ptr %3, i32 0, i32 0
  %5 = load ptr, ptr %4, align 8, !tbaa !56
  %6 = getelementptr inbounds %"class.rocksdb::SubcompactionState", ptr %5, i32 -1
  store ptr %6, ptr %4, align 8, !tbaa !56
  ret ptr %3
}

; Function Attrs: inlinehint mustprogress nounwind uwtable
define linkonce_odr noundef zeroext i1 @_ZN9__gnu_cxxltIPN7rocksdb18SubcompactionStateESt6vectorIS2_SaIS2_EEEEbRKNS_17__normal_iteratorIT_T0_EESC_(ptr noundef nonnull align 8 dereferenceable(8) %0, ptr noundef nonnull align 8 dereferenceable(8) %1) #1 comdat {
  %3 = alloca ptr, align 8
  %4 = alloca ptr, align 8
  store ptr %0, ptr %3, align 8, !tbaa !54
  store ptr %1, ptr %4, align 8, !tbaa !54
  %5 = load ptr, ptr %3, align 8, !tbaa !54
  %6 = call noundef nonnull align 8 dereferenceable(8) ptr @_ZNK9__gnu_cxx17__normal_iteratorIPN7rocksdb18SubcompactionStateESt6vectorIS2_SaIS2_EEE4baseEv(ptr noundef nonnull align 8 dereferenceable(8) %5) #4
  %7 = load ptr, ptr %6, align 8, !tbaa !52
  %8 = load ptr, ptr %4, align 8, !tbaa !54
  %9 = call noundef nonnull align 8 dereferenceable(8) ptr @_ZNK9__gnu_cxx17__normal_iteratorIPN7rocksdb18SubcompactionStateESt6vectorIS2_SaIS2_EEE4baseEv(ptr noundef nonnull align 8 dereferenceable(8) %8) #4
  %10 = load ptr, ptr %9, align 8, !tbaa !52
  %11 = icmp ult ptr %7, %10
  ret i1 %11
}

; Function Attrs: mustprogress nounwind uwtable
define linkonce_odr ptr @_ZNKSt16reverse_iteratorIN9__gnu_cxx17__normal_iteratorIPN7rocksdb18SubcompactionStateESt6vectorIS3_SaIS3_EEEEE4baseEv(ptr noundef nonnull align 8 dereferenceable(8) %0) #3 comdat align 2 {
  %2 = alloca %"class.__gnu_cxx::__normal_iterator", align 8
  %3 = alloca ptr, align 8
  store ptr %0, ptr %3, align 8, !tbaa !64
  %4 = load ptr, ptr %3, align 8
  %5 = getelementptr inbounds nuw %"class.std::reverse_iterator", ptr %4, i32 0, i32 0
  call void @llvm.memcpy.p0.p0.i64(ptr align 8 %2, ptr align 8 %5, i64 8, i1 false), !tbaa.struct !66
  %6 = getelementptr inbounds nuw %"class.__gnu_cxx::__normal_iterator", ptr %2, i32 0, i32 0
  %7 = load ptr, ptr %6, align 8
  ret ptr %7
}

; Function Attrs: mustprogress nounwind uwtable
define linkonce_odr ptr @_ZNSt6vectorIN7rocksdb18SubcompactionStateESaIS1_EE5beginEv(ptr noundef nonnull align 8 dereferenceable(24) %0) #3 comdat align 2 {
  %2 = alloca %"class.__gnu_cxx::__normal_iterator", align 8
  %3 = alloca ptr, align 8
  store ptr %0, ptr %3, align 8, !tbaa !50
  %4 = load ptr, ptr %3, align 8
  %5 = getelementptr inbounds nuw %"struct.std::_Vector_base.4", ptr %4, i32 0, i32 0
  %6 = getelementptr inbounds nuw %"struct.std::_Vector_base<rocksdb::SubcompactionState, std::allocator<rocksdb::SubcompactionState>>::_Vector_impl_data", ptr %5, i32 0, i32 0
  call void @_ZN9__gnu_cxx17__normal_iteratorIPN7rocksdb18SubcompactionStateESt6vectorIS2_SaIS2_EEEC2ERKS3_(ptr noundef nonnull align 8 dereferenceable(8) %2, ptr noundef nonnull align 8 dereferenceable(8) %6) #4
  %7 = getelementptr inbounds nuw %"class.__gnu_cxx::__normal_iterator", ptr %2, i32 0, i32 0
  %8 = load ptr, ptr %7, align 8
  ret ptr %8
}

; Function Attrs: mustprogress nounwind uwtable
define linkonce_odr void @_ZNSt16reverse_iteratorIN9__gnu_cxx17__normal_iteratorIPN7rocksdb18SubcompactionStateESt6vectorIS3_SaIS3_EEEEEC2ES8_(ptr noundef nonnull align 8 dereferenceable(8) %0, ptr %1) unnamed_addr #3 comdat align 2 {
  %3 = alloca %"class.__gnu_cxx::__normal_iterator", align 8
  %4 = alloca ptr, align 8
  %5 = getelementptr inbounds nuw %"class.__gnu_cxx::__normal_iterator", ptr %3, i32 0, i32 0
  store ptr %1, ptr %5, align 8
  store ptr %0, ptr %4, align 8, !tbaa !64
  %6 = load ptr, ptr %4, align 8
  %7 = getelementptr inbounds nuw %"class.std::reverse_iterator", ptr %6, i32 0, i32 0
  call void @llvm.memcpy.p0.p0.i64(ptr align 8 %7, ptr align 8 %3, i64 8, i1 false), !tbaa.struct !66
  ret void
}

; Function Attrs: mustprogress nounwind uwtable
define linkonce_odr ptr @_ZNSt6vectorIN7rocksdb18SubcompactionStateESaIS1_EE3endEv(ptr noundef nonnull align 8 dereferenceable(24) %0) #3 comdat align 2 {
  %2 = alloca %"class.__gnu_cxx::__normal_iterator", align 8
  %3 = alloca ptr, align 8
  store ptr %0, ptr %3, align 8, !tbaa !50
  %4 = load ptr, ptr %3, align 8
  %5 = getelementptr inbounds nuw %"struct.std::_Vector_base.4", ptr %4, i32 0, i32 0
  %6 = getelementptr inbounds nuw %"struct.std::_Vector_base<rocksdb::SubcompactionState, std::allocator<rocksdb::SubcompactionState>>::_Vector_impl_data", ptr %5, i32 0, i32 1
  call void @_ZN9__gnu_cxx17__normal_iteratorIPN7rocksdb18SubcompactionStateESt6vectorIS2_SaIS2_EEEC2ERKS3_(ptr noundef nonnull align 8 dereferenceable(8) %2, ptr noundef nonnull align 8 dereferenceable(8) %6) #4
  %7 = getelementptr inbounds nuw %"class.__gnu_cxx::__normal_iterator", ptr %2, i32 0, i32 0
  %8 = load ptr, ptr %7, align 8
  ret ptr %8
}

; Function Attrs: mustprogress nounwind uwtable
define linkonce_odr void @_ZN7rocksdb5SliceC2EPKcm(ptr noundef nonnull align 8 dereferenceable(16) %0, ptr noundef %1, i64 noundef %2) unnamed_addr #3 comdat align 2 {
  %4 = alloca ptr, align 8
  %5 = alloca ptr, align 8
  %6 = alloca i64, align 8
  store ptr %0, ptr %4, align 8, !tbaa !58
  store ptr %1, ptr %5, align 8, !tbaa !27
  store i64 %2, ptr %6, align 8, !tbaa !4
  %7 = load ptr, ptr %4, align 8
  %8 = getelementptr inbounds nuw %"class.rocksdb::Slice", ptr %7, i32 0, i32 0
  %9 = load ptr, ptr %5, align 8, !tbaa !27
  store ptr %9, ptr %8, align 8, !tbaa !61
  %10 = getelementptr inbounds nuw %"class.rocksdb::Slice", ptr %7, i32 0, i32 1
  %11 = load i64, ptr %6, align 8, !tbaa !4
  store i64 %11, ptr %10, align 8, !tbaa !59
  ret void
}

; Function Attrs: mustprogress nounwind uwtable
define linkonce_odr noundef nonnull align 8 dereferenceable(8) ptr @_ZNSt16reverse_iteratorIN9__gnu_cxx17__normal_iteratorIPN7rocksdb18SubcompactionStateESt6vectorIS3_SaIS3_EEEEEppEv(ptr noundef nonnull align 8 dereferenceable(8) %0) #3 comdat align 2 {
  %2 = alloca ptr, align 8
  store ptr %0, ptr %2, align 8, !tbaa !64
  %3 = load ptr, ptr %2, align 8
  %4 = getelementptr inbounds nuw %"class.std::reverse_iterator", ptr %3, i32 0, i32 0
  %5 = call noundef nonnull align 8 dereferenceable(8) ptr @_ZN9__gnu_cxx17__normal_iteratorIPN7rocksdb18SubcompactionStateESt6vectorIS2_SaIS2_EEEmmEv(ptr noundef nonnull align 8 dereferenceable(8) %4) #4
  ret ptr %3
}

; Function Attrs: mustprogress nounwind uwtable
define linkonce_odr noundef zeroext i1 @_ZNK7rocksdb5Slice5emptyEv(ptr noundef nonnull align 8 dereferenceable(16) %0) #3 comdat align 2 {
  %2 = alloca ptr, align 8
  store ptr %0, ptr %2, align 8, !tbaa !58
  %3 = load ptr, ptr %2, align 8
  %4 = getelementptr inbounds nuw %"class.rocksdb::Slice", ptr %3, i32 0, i32 1
  %5 = load i64, ptr %4, align 8, !tbaa !59
  %6 = icmp eq i64 %5, 0
  ret i1 %6
}

; Function Attrs: mustprogress uwtable
define linkonce_odr noundef ptr @_ZNKSt16reverse_iteratorIN9__gnu_cxx17__normal_iteratorIPN7rocksdb18SubcompactionStateESt6vectorIS3_SaIS3_EEEEEptEv(ptr noundef nonnull align 8 dereferenceable(8) %0) #5 comdat align 2 {
  %2 = alloca ptr, align 8
  %3 = alloca %"class.__gnu_cxx::__normal_iterator", align 8
  %4 = alloca %"class.__gnu_cxx::__normal_iterator", align 8
  store ptr %0, ptr %2, align 8, !tbaa !64
  %5 = load ptr, ptr %2, align 8
  call void @llvm.lifetime.start.p0(i64 8, ptr %3) #4
  %6 = getelementptr inbounds nuw %"class.std::reverse_iterator", ptr %5, i32 0, i32 0
  call void @llvm.memcpy.p0.p0.i64(ptr align 8 %3, ptr align 8 %6, i64 8, i1 false), !tbaa.struct !66
  %7 = call noundef nonnull align 8 dereferenceable(8) ptr @_ZN9__gnu_cxx17__normal_iteratorIPN7rocksdb18SubcompactionStateESt6vectorIS2_SaIS2_EEEmmEv(ptr noundef nonnull align 8 dereferenceable(8) %3) #4
  call void @llvm.memcpy.p0.p0.i64(ptr align 8 %4, ptr align 8 %3, i64 8, i1 false), !tbaa.struct !66
  %8 = getelementptr inbounds nuw %"class.__gnu_cxx::__normal_iterator", ptr %4, i32 0, i32 0
  %9 = load ptr, ptr %8, align 8
  %10 = call noundef ptr @_ZNSt16reverse_iteratorIN9__gnu_cxx17__normal_iteratorIPN7rocksdb18SubcompactionStateESt6vectorIS3_SaIS3_EEEEE13_S_to_pointerIS8_EES4_T_(ptr %9)
  call void @llvm.lifetime.end.p0(i64 8, ptr %3) #4
  ret ptr %10
}

; Function Attrs: inlinehint mustprogress nounwind uwtable
define linkonce_odr noundef zeroext i1 @_ZStltIN9__gnu_cxx17__normal_iteratorIPN7rocksdb18SubcompactionStateESt6vectorIS3_SaIS3_EEEEEbRKSt16reverse_iteratorIT_ESD_(ptr noundef nonnull align 8 dereferenceable(8) %0, ptr noundef nonnull align 8 dereferenceable(8) %1) #1 comdat {
  %3 = alloca ptr, align 8
  %4 = alloca ptr, align 8
  %5 = alloca %"class.__gnu_cxx::__normal_iterator", align 8
  %6 = alloca %"class.__gnu_cxx::__normal_iterator", align 8
  store ptr %0, ptr %3, align 8, !tbaa !64
  store ptr %1, ptr %4, align 8, !tbaa !64
  call void @llvm.lifetime.start.p0(i64 8, ptr %5) #4
  %7 = load ptr, ptr %4, align 8, !tbaa !64
  %8 = call ptr @_ZNKSt16reverse_iteratorIN9__gnu_cxx17__normal_iteratorIPN7rocksdb18SubcompactionStateESt6vectorIS3_SaIS3_EEEEE4baseEv(ptr noundef nonnull align 8 dereferenceable(8) %7) #4
  %9 = getelementptr inbounds nuw %"class.__gnu_cxx::__normal_iterator", ptr %5, i32 0, i32 0
  store ptr %8, ptr %9, align 8
  call void @llvm.lifetime.start.p0(i64 8, ptr %6) #4
  %10 = load ptr, ptr %3, align 8, !tbaa !64
  %11 = call ptr @_ZNKSt16reverse_iteratorIN9__gnu_cxx17__normal_iteratorIPN7rocksdb18SubcompactionStateESt6vectorIS3_SaIS3_EEEEE4baseEv(ptr noundef nonnull align 8 dereferenceable(8) %10) #4
  %12 = getelementptr inbounds nuw %"class.__gnu_cxx::__normal_iterator", ptr %6, i32 0, i32 0
  store ptr %11, ptr %12, align 8
  %13 = call noundef zeroext i1 @_ZN9__gnu_cxxltIPN7rocksdb18SubcompactionStateESt6vectorIS2_SaIS2_EEEEbRKNS_17__normal_iteratorIT_T0_EESC_(ptr noundef nonnull align 8 dereferenceable(8) %5, ptr noundef nonnull align 8 dereferenceable(8) %6) #4
  call void @llvm.lifetime.end.p0(i64 8, ptr %6) #4
  call void @llvm.lifetime.end.p0(i64 8, ptr %5) #4
  ret i1 %13
}

; Function Attrs: mustprogress nounwind uwtable
define linkonce_odr void @_ZNSt6vectorIN7rocksdb18SubcompactionStateESaIS1_EE4rendEv(ptr dead_on_unwind noalias writable sret(%"class.std::reverse_iterator") align 8 %0, ptr noundef nonnull align 8 dereferenceable(24) %1) #3 comdat align 2 {
  %3 = alloca ptr, align 8
  %4 = alloca ptr, align 8
  %5 = alloca %"class.__gnu_cxx::__normal_iterator", align 8
  store ptr %0, ptr %3, align 8
  store ptr %1, ptr %4, align 8, !tbaa !50
  %6 = load ptr, ptr %4, align 8
  %7 = call ptr @_ZNSt6vectorIN7rocksdb18SubcompactionStateESaIS1_EE5beginEv(ptr noundef nonnull align 8 dereferenceable(24) %6) #4
  %8 = getelementptr inbounds nuw %"class.__gnu_cxx::__normal_iterator", ptr %5, i32 0, i32 0
  store ptr %7, ptr %8, align 8
  %9 = getelementptr inbounds nuw %"class.__gnu_cxx::__normal_iterator", ptr %5, i32 0, i32 0
  %10 = load ptr, ptr %9, align 8
  call void @_ZNSt16reverse_iteratorIN9__gnu_cxx17__normal_iteratorIPN7rocksdb18SubcompactionStateESt6vectorIS3_SaIS3_EEEEEC2ES8_(ptr noundef nonnull align 8 dereferenceable(8) %0, ptr %10) #4
  ret void
}

; Function Attrs: mustprogress nounwind uwtable
define linkonce_odr void @_ZNSt6vectorIN7rocksdb18SubcompactionStateESaIS1_EE6rbeginEv(ptr dead_on_unwind noalias writable sret(%"class.std::reverse_iterator") align 8 %0, ptr noundef nonnull align 8 dereferenceable(24) %1) #3 comdat align 2 {
  %3 = alloca ptr, align 8
  %4 = alloca ptr, align 8
  %5 = alloca %"class.__gnu_cxx::__normal_iterator", align 8
  store ptr %0, ptr %3, align 8
  store ptr %1, ptr %4, align 8, !tbaa !50
  %6 = load ptr, ptr %4, align 8
  %7 = call ptr @_ZNSt6vectorIN7rocksdb18SubcompactionStateESaIS1_EE3endEv(ptr noundef nonnull align 8 dereferenceable(24) %6) #4
  %8 = getelementptr inbounds nuw %"class.__gnu_cxx::__normal_iterator", ptr %5, i32 0, i32 0
  store ptr %7, ptr %8, align 8
  %9 = getelementptr inbounds nuw %"class.__gnu_cxx::__normal_iterator", ptr %5, i32 0, i32 0
  %10 = load ptr, ptr %9, align 8
  call void @_ZNSt16reverse_iteratorIN9__gnu_cxx17__normal_iteratorIPN7rocksdb18SubcompactionStateESt6vectorIS3_SaIS3_EEEEEC2ES8_(ptr noundef nonnull align 8 dereferenceable(8) %0, ptr %10) #4
  ret void
}

; Function Attrs: mustprogress uwtable
define { ptr, i64 } @_ZN7rocksdb15CompactionState14LargestUserKeyEv(ptr noundef nonnull align 8 dereferenceable(48) %0) #5 align 2 {
  %2 = alloca %"class.rocksdb::Slice", align 8
  %3 = alloca ptr, align 8
  %4 = alloca %"class.std::reverse_iterator", align 8
  %5 = alloca %"class.std::reverse_iterator", align 8
  %6 = alloca i32, align 4
  store ptr %0, ptr %3, align 8, !tbaa !48
  %7 = load ptr, ptr %3, align 8
  call void @llvm.lifetime.start.p0(i64 8, ptr %4) #4
  %8 = getelementptr inbounds nuw %"class.rocksdb::CompactionState", ptr %7, i32 0, i32 1
  call void @_ZNSt6vectorIN7rocksdb18SubcompactionStateESaIS1_EE6rbeginEv(ptr dead_on_unwind writable sret(%"class.std::reverse_iterator") align 8 %4, ptr noundef nonnull align 8 dereferenceable(24) %8) #4
  br label %9

9:                                                ; preds = %23, %1
  call void @llvm.lifetime.start.p0(i64 8, ptr %5) #4
  %10 = getelementptr inbounds nuw %"class.rocksdb::CompactionState", ptr %7, i32 0, i32 1
  call void @_ZNSt6vectorIN7rocksdb18SubcompactionStateESaIS1_EE4rendEv(ptr dead_on_unwind writable sret(%"class.std::reverse_iterator") align 8 %5, ptr noundef nonnull align 8 dereferenceable(24) %10) #4
  %11 = call noundef zeroext i1 @_ZStltIN9__gnu_cxx17__normal_iteratorIPN7rocksdb18SubcompactionStateESt6vectorIS3_SaIS3_EEEEEbRKSt16reverse_iteratorIT_ESD_(ptr noundef nonnull align 8 dereferenceable(8) %4, ptr noundef nonnull align 8 dereferenceable(8) %5)
  call void @llvm.lifetime.end.p0(i64 8, ptr %5) #4
  br i1 %11, label %13, label %12

12:                                               ; preds = %9
  store i32 2, ptr %6, align 4
  br label %25

13:                                               ; preds = %9
  %14 = call noundef ptr @_ZNKSt16reverse_iteratorIN9__gnu_cxx17__normal_iteratorIPN7rocksdb18SubcompactionStateESt6vectorIS3_SaIS3_EEEEEptEv(ptr noundef nonnull align 8 dereferenceable(8) %4)
  %15 = call { ptr, i64 } @_ZNK7rocksdb18SubcompactionState14LargestUserKeyEv(ptr noundef nonnull align 8 dereferenceable(1080) %14)
  %16 = getelementptr inbounds nuw { ptr, i64 }, ptr %2, i32 0, i32 0
  %17 = extractvalue { ptr, i64 } %15, 0
  store ptr %17, ptr %16, align 8
  %18 = getelementptr inbounds nuw { ptr, i64 }, ptr %2, i32 0, i32 1
  %19 = extractvalue { ptr, i64 } %15, 1
  store i64 %19, ptr %18, align 8
  %20 = call noundef zeroext i1 @_ZNK7rocksdb5Slice5emptyEv(ptr noundef nonnull align 8 dereferenceable(16) %2)
  br i1 %20, label %22, label %21

21:                                               ; preds = %13
  store i32 1, ptr %6, align 4
  br label %25

22:                                               ; preds = %13
  br label %23

23:                                               ; preds = %22
  %24 = call noundef nonnull align 8 dereferenceable(8) ptr @_ZNSt16reverse_iteratorIN9__gnu_cxx17__normal_iteratorIPN7rocksdb18SubcompactionStateESt6vectorIS3_SaIS3_EEEEEppEv(ptr noundef nonnull align 8 dereferenceable(8) %4)
  br label %9, !llvm.loop !62

25:                                               ; preds = %21, %12
  call void @llvm.lifetime.end.p0(i64 8, ptr %4) #4
  %26 = load i32, ptr %6, align 4
  switch i32 %26, label %30 [
    i32 2, label %27
    i32 1, label %28
  ]

27:                                               ; preds = %25
  call void @_ZN7rocksdb5SliceC2EPKcm(ptr noundef nonnull align 8 dereferenceable(16) %2, ptr noundef null, i64 noundef 0)
  br label %28

28:                                               ; preds = %27, %25
  %29 = load { ptr, i64 }, ptr %2, align 8
  ret { ptr, i64 } %29

30:                                               ; preds = %25
  unreachable
}