; Function Attrs: mustprogress uwtable
define { ptr, i64 } @_ZN7rocksdb15CompactionState14LargestUserKeyEv(ptr noundef nonnull readonly align 8 captures(none) dereferenceable(48) %0) local_unnamed_addr #4 align 2 {
  %2 = getelementptr inbounds nuw i8, ptr %0, i64 8
  %3 = getelementptr inbounds nuw i8, ptr %0, i64 16
  %4 = load ptr, ptr %3, align 8, !tbaa !18, !noalias !20
  br label %5

5:                                                ; preds = %8, %1
  %.sroa.01.0 = phi ptr [ %4, %1 ], [ %9, %8 ]
  %6 = load ptr, ptr %2, align 8, !tbaa !18, !noalias !23
  %7 = icmp ult ptr %6, %.sroa.01.0
  br i1 %7, label %8, label %.loopexit

8:                                                ; preds = %5
  %9 = getelementptr inbounds i8, ptr %.sroa.01.0, i64 -1080
  %10 = tail call { ptr, i64 } @_ZNK7rocksdb18SubcompactionState14LargestUserKeyEv(ptr noundef nonnull align 8 dereferenceable(1080) %9)
  %11 = extractvalue { ptr, i64 } %10, 1
  %12 = icmp eq i64 %11, 0
  br i1 %12, label %5, label %13, !llvm.loop !26

13:                                               ; preds = %8
  %14 = extractvalue { ptr, i64 } %10, 0
  br label %.loopexit

.loopexit:                                        ; preds = %5, %13
  %.sroa.02.2 = phi ptr [ %14, %13 ], [ null, %5 ]
  %.sroa.3.2 = phi i64 [ %11, %13 ], [ 0, %5 ]
  %.fca.0.insert = insertvalue { ptr, i64 } poison, ptr %.sroa.02.2, 0
  %.fca.1.insert = insertvalue { ptr, i64 } %.fca.0.insert, i64 %.sroa.3.2, 1
  ret { ptr, i64 } %.fca.1.insert
}